ccopy_reg
_reconstructor
p0
(capiclient.oauth
OAuthCredentials
p1
c__builtin__
object
p2
Ntp3
Rp4
(dp5
S'token'
p6
g0
(coauth2
Token
p7
g2
Ntp8
Rp9
(dp10
S'secret'
p11
S'4sY9HwS2NNl3Ue0iUsOrt3TI'
p12
sS'key'
p13
S'1/EtHHOkBb34wt4o1h0zj11dXfV5NwbIWyT7L6mUou85k'
p14
sbsS'consumer'
p15
g0
(coauth2
Consumer
p16
g2
Ntp17
Rp18
(dp19
g11
S'5oQJI3LenPiWZ3yvHDEMmq5U'
p20
sg13
S'nemec.cz.cc'
p21
sbsS'user_agent'
p22
S'google-api-client-python-latitude/1.0'
p23
sb.